(lp0
F179.2797180000097
aF62.77151599999229
aF124.39666800000211
aF443.89760600000017
aF497.8160559999998
aF15.878413999996788
aF246.5007780000006
aF8.832425999997184
aF77.1663100000012
aF71.26670399999516
aF444.52434200000044
aF313.0819100000029
aF207.05819400000323
aF465.965098000002
aF198.42791999999838
aF257.12018200000165
aF95.37086199999827
aF80.5375259999968
aF18.777477999995895
aF305.69887400000067
aF180.3243779999992
aF355.5926939999985
aF62.771517999992454
aF187.1681839999944
aF124.39667000000227
aF443.897604
aF72.85134799999646
aF308.83386199999984
aF497.81605799999994
aF15.878415999996953
aF15.878415999996953
aF246.50078000000076
aF246.50078000000076
aF8.832423999997019
aF8.832424000006611
aF148.43301399999638
aF106.02371599999962
aF207.05819200000306
aF465.96510000000217
aF465.96510000000217
aF198.42792199999855
aF410.98101399999933
aF257.1201780000013
aF321.40860399999735
aF95.37086400000324
aF95.37086399999843
aF80.53752799999697
aF80.53752799999697
aF305.69887600000084
aF180.32437599999903
aF180.32437599999903
aF355.5926959999987
aF187.16818599999456
aF187.16818599999456
aF319.5009359999979
aF72.85134999999663
aF497.8160600000001
aF15.878417999997119
aF15.878417999997119
aF262.37919399999754
aF246.50078200000092
aF237.66835400000357
aF8.832422000006446
aF8.832422000006446
aF106.02371799999979
aF207.0581900000029
aF465.96510200000233
aF465.96510200000233
aF410.98101199999917
aF321.4086079999977
aF321.4086060000023
aF95.3708660000034
aF95.3708659999986
aF80.53752999999713
aF80.53752999999713
aF125.37449800000165
aF180.32437399999887
a.