(lp0
F71.26670399999516
aF62.771517999992454
aF187.1681839999944
aF124.39667000000227
aF443.897604
aF72.85134799999646
aF308.83386199999984
aF497.81605799999994
aF15.878415999996953
aF15.878415999996953
aF246.50078000000076
aF246.50078000000076
aF8.832423999997019
aF8.832424000006611
aF148.43301399999638
aF515.7910459999956
aF106.02371599999962
aF207.05819200000306
aF465.96510000000217
aF465.96510000000217
aF198.42792199999855
aF410.98101399999933
aF257.1201780000013
aF321.40860399999735
aF578.5287880000039
aF95.37086400000324
aF95.37086399999843
aF80.53752799999697
aF80.53752799999697
aF305.69887600000084
aF180.32437599999903
aF180.32437599999903
aF355.5926959999987
aF4.000000330961484e-06
aF257.35601200000355
aF257.35601200000355
aF212.78887799999424
aF60.782405999997735
aF253.2092359999961
aF497.41813200001064
aF396.21537200001137
aF216.5647800000013
aF146.0396279999955
aF70.52514600000528
aF118.65187800000463
aF216.2947580000001
aF320.3434920000039
aF222.70061000000823
aF6.000000496442226e-06
aF4.000000330961484e-06
aF50.365300000001056
aF50.365300000001056
aF4.000000330961484e-06
aF62.77151599999229
aF62.77151599999229
aF124.39666600000194
aF124.39666600000194
aF4.000000330961484e-06
aF4.000000330961484e-06
aF4.000000330961484e-06
aF443.93761000001035
aF443.8976100000005
aF213.32118600000882
aF129.9113920000046
aF343.1925740000033
aF465.18939200000204
aF465.18939200000204
aF390.68628800000056
aF215.58700800000176
aF175.09928399999916
aF207.30762400000808
aF207.30762400000808
aF189.75033599999273
aF189.75033599999273
aF8.000000661922968e-06
aF308.8338539999992
aF127.633036000001
aF127.63303400000083
aF169.0245059999981
aF231.18926999999854
aF328.79155200000184
aF266.6267880000014
aF4.000000330961484e-06
aF4.000000330961484e-06
aF4.000000330961484e-06
aF4.000000330961484e-06
aF4.000000330961484e-06
aF15.878411999996622
aF15.878411999996622
aF4.000000330961484e-06
aF180.4932959999995
aF429.01681800000057
aF455.8514139999979
aF536.0520680000019
aF2.022752000005923
aF538.0748120000071
aF4.000000330961484e-06
aF4.000000330961484e-06
aF8.83242799999735
aF8.83242799999735
aF4.000000330961484e-06
aF115.93506400000102
aF115.93506400000102
aF4.000000330961484e-06
aF4.000000330961484e-06
aF331.72443799999843
aF77.16630600000087
aF254.5581280000068
aF71.26670199999978
aF71.26670199999978
aF4.000000330961484e-06
aF163.23282600000104
aF444.5243380000001
aF281.29151599999943
aF6.000000496442226e-06
aF6.000000496442226e-06
aF493.47375400000146
aF588.2041759999976
aF94.7304180000053
aF4.000000330961484e-06
aF4.000000330961484e-06
aF4.000000330961484e-06
aF381.9215280000002
aF381.9215280000002
aF275.1897300000035
aF221.1497140000031
aF6.000000496442226e-06
aF64.82797400000528
aF49.79228000000404
aF2.8000002316730388e-05
aF2.8000002316730388e-05
aF82.72897399999906
aF20.469476000002018
aF14.90695399999673
aF95.37085800000274
aF80.46390800000154
aF2.9129099999984476
aF86.16745400000134
aF1.9890700000008366
aF80.53752399999664
aF48.06684799999896
aF97.32625400000394
aF48.84843999999671
aF8.000000661922968e-06
aF35.56601600000171
aF39.038372000001154
aF21.912826000000862
aF79.72867400000254
aF59.211514000002374
aF76.18900800000219
aF8.000000661922968e-06
aF26.281762000001407
aF33.23982800000209
aF76.86306600000421
aF60.78240399999757
aF40.42035600000169
aF48.12672799999902
aF50.36530200000122
aF50.36530200000122
aF50.36530200000122
aF62.771517999992454
aF62.771517999992454
aF6.000000496442226e-06
aF6.000000496442226e-06
aF74.50310200000132
aF6.000000496442226e-06
aF6.000000496442226e-06
aF6.000000496442226e-06
aF6.000000496442226e-06
aF15.878413999996788
aF15.878413999996788
aF15.878413999996788
aF80.20064800000348
aF2.0227460000054265
aF2.0227500000057574
aF6.000000496442226e-06
aF8.832425999997184
aF8.832425999997184
aF8.832426000006777
aF5.99999570027876e-06
aF5.99999570027876e-06
aF6.000000496442226e-06
aF77.16630800000104
aF77.16630799999625
aF71.26670399999516
aF71.26670399999995
aF71.26670399999995
aF8.000000661922968e-06
aF94.73041600000514
aF6.000000496442226e-06
aF6.000000496442226e-06
aF6.000000496442226e-06
aF6.000000496442226e-06
aF6.000000496442226e-06
aF52.691598000000184
aF49.792278000003876
aF3.000000248221113e-05
aF3.000000248221113e-05
aF6.000000496442226e-06
aF42.61175199999965
aF92.0332680000028
aF20.469474000001853
aF14.906956000001692
aF95.3708599999981
aF95.3708600000029
aF80.4639100000017
aF6.000000496442226e-06
aF6.000000496442226e-06
aF6.000000496442226e-06
aF2.9129080000078744
aF61.227000000006626
aF1.989068000000671
aF6.000000496442226e-06
aF80.5375259999968
aF80.5375259999968
aF6.000000496442226e-06
aF3.8157179999968704
aF48.06684999999913
aF0.3034060000008054
aF43.24609000000059
aF48.8484459999972
aF6.000000496442226e-06
aF6.000000496442226e-06
aF35.566018000001876
aF60.95119600000185
aF79.72867200000238
aF59.211515999997744
aF76.18900600000202
aF6.000000496442226e-06
aF26.281760000001242
aF33.23983000000226
aF6.000000496442226e-06
aF6.000000496442226e-06
aF92.02725799999953
aF40.420358000001855
aF50.36530400000139
aF50.36530400000139
aF62.77151999999262
aF8.000000661922968e-06
aF74.50310400000149
aF8.279383999993684
aF8.000000661922968e-06
aF8.000000661922968e-06
aF8.000000661922968e-06
aF15.878415999996953
aF15.878415999996953
aF15.878415999996953
aF2.022744000005261
aF2.022748000005592
aF8.832423999997019
aF8.832423999997019
aF8.832424000006611
aF8.832424000006611
aF7.999995865759502e-06
aF77.1663100000012
aF77.16630999999641
aF77.16630999999641
aF71.26670599999532
aF71.26670600000011
aF94.73041400000497
aF8.000000661922968e-06
aF8.000000661922968e-06
aF8.000000661922968e-06
aF52.69159600000002
aF49.79227600000371
aF3.200000264769187e-05
aF42.61175399999981
aF54.68067400000152
aF5.259157999998365
aF92.03327000000297
aF5.562522000005288
aF95.37086200000307
aF95.37086199999827
aF95.37086200000307
aF80.46391200000187
aF8.000000661922968e-06
aF8.000000661922968e-06
aF61.22699800000646
aF80.53752799999697
aF80.53752799999697
aF3.815719999997036
aF91.06194200000424
aF0.3034080000009709
aF48.84844799999737
aF8.000000661922968e-06
aF35.56602000000204
aF60.951198000002016
aF77.9889900000029
aF57.81584800000168
aF79.72867000000221
aF26.281758000001076
aF33.23983200000242
aF38.83623800000073
aF3.0289100000040037
aF8.894063999994017
aF6.234240000005542
aF6.2342420000057075
aF6.049764000012914
aF5.894700000007802
aF5.8946980000076366
aF9.052427999993995
aF8.571502000010156
aF8.571498000000233
aF5.615967999995775
aF1.6000001323845936e-05
aF0.040000000009854375
aF1.8000001489326678e-05
aF0.040002000010019856
aF5.714856000005142
aF8.000000661922968e-06
aF8.000000661922968e-06
aF8.000000661922968e-06
aF8.000000661922968e-06
aF8.000000661922968e-06
aF8.000000661922968e-06
aF5.714854000004976
aF1.000000082740371e-05
aF1.000000082740371e-05
aF5.798342000006329
aF5.798340000006164
aF192.4088380000013
aF269.2596039999998
aF62.164766000000604
aF204.42849199999867
aF165.44456800000376
aF263.462231999997
aF65.1202879999996
aF14.782430000000524
aF35.48037800000472
aF86.02375200000108
a.